target datalayout = "e-m:e-p270:32:32-p271:32:32-p272:64:64-i64:64-i128:128-f80:128-n8:16:32:64-S128"
target triple = "x86_64-pc-linux-gnu"

%"class.VrmlTranslator::Parser" = type { i32, ptr, i32, i32, ptr, ptr, ptr, ptr, ptr, %"class.std::map", %"class.std::set", %"class.std::set" }
%"class.std::map" = type { %"class.std::_Rb_tree" }
%"class.std::_Rb_tree" = type { %"struct.std::_Rb_tree<QString, std::pair<const QString, QString>, std::_Select1st<std::pair<const QString, QString>>, std::less<QString>>::_Rb_tree_impl" }
%"struct.std::_Rb_tree<QString, std::pair<const QString, QString>, std::_Select1st<std::pair<const QString, QString>>, std::less<QString>>::_Rb_tree_impl" = type { %"struct.std::_Rb_tree_key_compare", %"struct.std::_Rb_tree_header" }
%"struct.std::_Rb_tree_key_compare" = type { %"struct.std::less" }
%"struct.std::less" = type { i8 }
%"struct.std::_Rb_tree_header" = type { %"struct.std::_Rb_tree_node_base", i64 }
%"struct.std::_Rb_tree_node_base" = type { i32, ptr, ptr, ptr }
%"class.std::set" = type { %"class.std::_Rb_tree.0" }
%"class.std::_Rb_tree.0" = type { %"struct.std::_Rb_tree<QString, QString, std::_Identity<QString>, std::less<QString>>::_Rb_tree_impl" }
%"struct.std::_Rb_tree<QString, QString, std::_Identity<QString>, std::less<QString>>::_Rb_tree_impl" = type { %"struct.std::_Rb_tree_key_compare", %"struct.std::_Rb_tree_header" }
%"class.VrmlTranslator::Token" = type { i32, i32, i32, i32, ptr, ptr }

; Function Attrs: mustprogress uwtable
define void @_ZN14VrmlTranslator6Parser6SynErrEi(ptr noundef nonnull align 8 dereferenceable(208) %0, i32 noundef %1) #0 align 2 {
  %3 = alloca ptr, align 8
  %4 = alloca i32, align 4
  store ptr %0, ptr %3, align 8
  store i32 %1, ptr %4, align 4
  %5 = load ptr, ptr %3, align 8
  %6 = getelementptr inbounds %"class.VrmlTranslator::Parser", ptr %5, i32 0, i32 2
  %7 = load i32, ptr %6, align 8
  %8 = getelementptr inbounds %"class.VrmlTranslator::Parser", ptr %5, i32 0, i32 3
  %9 = load i32, ptr %8, align 4
  %10 = icmp sge i32 %7, %9
  br i1 %10, label %11, label %23

11:                                               ; preds = %2
  %12 = getelementptr inbounds %"class.VrmlTranslator::Parser", ptr %5, i32 0, i32 5
  %13 = load ptr, ptr %12, align 8
  %14 = getelementptr inbounds %"class.VrmlTranslator::Parser", ptr %5, i32 0, i32 7
  %15 = load ptr, ptr %14, align 8
  %16 = getelementptr inbounds %"class.VrmlTranslator::Token", ptr %15, i32 0, i32 3
  %17 = load i32, ptr %16, align 4
  %18 = getelementptr inbounds %"class.VrmlTranslator::Parser", ptr %5, i32 0, i32 7
  %19 = load ptr, ptr %18, align 8
  %20 = getelementptr inbounds %"class.VrmlTranslator::Token", ptr %19, i32 0, i32 2
  %21 = load i32, ptr %20, align 8
  %22 = load i32, ptr %4, align 4
  call void @_ZN14VrmlTranslator6Errors6SynErrEiii(ptr noundef nonnull align 8 dereferenceable(16) %13, i32 noundef %17, i32 noundef %21, i32 noundef %22)
  br label %23

23:                                               ; preds = %11, %2
  %24 = getelementptr inbounds %"class.VrmlTranslator::Parser", ptr %5, i32 0, i32 2
  store i32 0, ptr %24, align 8
  ret void
}

; Function Attrs: mustprogress uwtable
define void @_ZN14VrmlTranslator6Parser6ExpectEi(ptr noundef nonnull align 8 dereferenceable(208) %0, i32 noundef %1) #0 align 2 {
  %3 = alloca ptr, align 8
  %4 = alloca i32, align 4
  store ptr %0, ptr %3, align 8
  store i32 %1, ptr %4, align 4
  %5 = load ptr, ptr %3, align 8
  %6 = getelementptr inbounds %"class.VrmlTranslator::Parser", ptr %5, i32 0, i32 7
  %7 = load ptr, ptr %6, align 8
  %8 = getelementptr inbounds %"class.VrmlTranslator::Token", ptr %7, i32 0, i32 0
  %9 = load i32, ptr %8, align 8
  %10 = load i32, ptr %4, align 4
  %11 = icmp eq i32 %9, %10
  br i1 %11, label %12, label %13

12:                                               ; preds = %2
  call void @_ZN14VrmlTranslator6Parser3GetEv(ptr noundef nonnull align 8 dereferenceable(208) %5)
  br label %15

13:                                               ; preds = %2
  %14 = load i32, ptr %4, align 4
  call void @_ZN14VrmlTranslator6Parser6SynErrEi(ptr noundef nonnull align 8 dereferenceable(208) %5, i32 noundef %14)
  br label %15

15:                                               ; preds = %13, %12
  ret void
}