; Function Attrs: mustprogress uwtable
define void @_ZN14VrmlTranslator6Parser6ExpectEi(ptr noundef nonnull align 8 captures(none) dereferenceable(208) %0, i32 noundef %1) local_unnamed_addr #0 align 2 {
  %3 = getelementptr inbounds nuw i8, ptr %0, i64 48
  %4 = load ptr, ptr %3, align 8
  %5 = load i32, ptr %4, align 8
  %6 = icmp eq i32 %5, %1
  br i1 %6, label %7, label %8

7:                                                ; preds = %2
  tail call void @_ZN14VrmlTranslator6Parser3GetEv(ptr noundef nonnull align 8 dereferenceable(208) %0)
  br label %20

8:                                                ; preds = %2
  %9 = getelementptr inbounds nuw i8, ptr %0, i64 16
  %10 = load i32, ptr %9, align 8
  %11 = getelementptr inbounds nuw i8, ptr %0, i64 20
  %12 = load i32, ptr %11, align 4
  %.not.i = icmp slt i32 %10, %12
  br i1 %.not.i, label %_ZN14VrmlTranslator6Parser6SynErrEi.exit, label %13

13:                                               ; preds = %8
  %14 = getelementptr inbounds nuw i8, ptr %0, i64 32
  %15 = load ptr, ptr %14, align 8
  %16 = getelementptr inbounds nuw i8, ptr %4, i64 12
  %17 = load i32, ptr %16, align 4
  %18 = getelementptr inbounds nuw i8, ptr %4, i64 8
  %19 = load i32, ptr %18, align 8
  tail call void @_ZN14VrmlTranslator6Errors6SynErrEiii(ptr noundef nonnull align 8 dereferenceable(16) %15, i32 noundef %17, i32 noundef %19, i32 noundef %1)
  br label %_ZN14VrmlTranslator6Parser6SynErrEi.exit

_ZN14VrmlTranslator6Parser6SynErrEi.exit:         ; preds = %8, %13
  store i32 0, ptr %9, align 8
  br label %20

20:                                               ; preds = %_ZN14VrmlTranslator6Parser6SynErrEi.exit, %7
  ret void
}